; ModuleID = '46/2300.c'
source_filename = "46/2300.c"
target datalayout = "e-m:e-p270:32:32-p271:32:32-p272:64:64-i64:64-f80:128-n8:16:32:64-S128"
target triple = "x86_64-pc-linux-gnu"

@.str = private unnamed_addr constant [5 x i8] c"%d%d\00", align 1
@.str.1 = private unnamed_addr constant [3 x i8] c"%d\00", align 1
@.str.2 = private unnamed_addr constant [4 x i8] c"%d\0A\00", align 1

; Function Attrs: noinline nounwind uwtable
define dso_local i32 @main() #0 {
  %1 = alloca i32, align 4
  %2 = alloca [100 x [100 x i32]], align 16
  %3 = alloca i32, align 4
  %4 = alloca i32, align 4
  %5 = alloca i32, align 4
  %6 = alloca i32, align 4
  %7 = alloca i32, align 4
  %8 = alloca i32, align 4
  %9 = alloca i32, align 4
  store i32 0, i32* %1, align 4
  store i32 0, i32* %7, align 4
  store i32 0, i32* %8, align 4
  store i32 0, i32* %9, align 4
  %10 = call i32 (i8*, ...) @__isoc99_scanf(i8* getelementptr inbounds ([5 x i8], [5 x i8]* @.str, i64 0, i64 0), i32* %5, i32* %6)
  store i32 0, i32* %3, align 4
  br label %11

11:                                               ; preds = %29, %0
  %12 = load i32, i32* %3, align 4
  %13 = icmp slt i32 %12, 100
  br i1 %13, label %14, label %32

14:                                               ; preds = %11
  store i32 0, i32* %4, align 4
  br label %15

15:                                               ; preds = %25, %14
  %16 = load i32, i32* %4, align 4
  %17 = icmp slt i32 %16, 100
  br i1 %17, label %18, label %28

18:                                               ; preds = %15
  %19 = load i32, i32* %3, align 4
  %20 = sext i32 %19 to i64
  %21 = getelementptr inbounds [100 x [100 x i32]], [100 x [100 x i32]]* %2, i64 0, i64 %20
  %22 = load i32, i32* %4, align 4
  %23 = sext i32 %22 to i64
  %24 = getelementptr inbounds [100 x i32], [100 x i32]* %21, i64 0, i64 %23
  store i32 -1, i32* %24, align 4
  br label %25

25:                                               ; preds = %18
  %26 = load i32, i32* %4, align 4
  %27 = add nsw i32 %26, 1
  store i32 %27, i32* %4, align 4
  br label %15

28:                                               ; preds = %15
  br label %29

29:                                               ; preds = %28
  %30 = load i32, i32* %3, align 4
  %31 = add nsw i32 %30, 1
  store i32 %31, i32* %3, align 4
  br label %11

32:                                               ; preds = %11
  store i32 0, i32* %3, align 4
  br label %33

33:                                               ; preds = %54, %32
  %34 = load i32, i32* %3, align 4
  %35 = load i32, i32* %5, align 4
  %36 = icmp slt i32 %34, %35
  br i1 %36, label %37, label %57

37:                                               ; preds = %33
  store i32 0, i32* %4, align 4
  br label %38

38:                                               ; preds = %50, %37
  %39 = load i32, i32* %4, align 4
  %40 = load i32, i32* %6, align 4
  %41 = icmp slt i32 %39, %40
  br i1 %41, label %42, label %53

42:                                               ; preds = %38
  %43 = load i32, i32* %3, align 4
  %44 = sext i32 %43 to i64
  %45 = getelementptr inbounds [100 x [100 x i32]], [100 x [100 x i32]]* %2, i64 0, i64 %44
  %46 = load i32, i32* %4, align 4
  %47 = sext i32 %46 to i64
  %48 = getelementptr inbounds [100 x i32], [100 x i32]* %45, i64 0, i64 %47
  %49 = call i32 (i8*, ...) @__isoc99_scanf(i8* getelementptr inbounds ([3 x i8], [3 x i8]* @.str.1, i64 0, i64 0), i32* %48)
  br label %50

50:                                               ; preds = %42
  %51 = load i32, i32* %4, align 4
  %52 = add nsw i32 %51, 1
  store i32 %52, i32* %4, align 4
  br label %38

53:                                               ; preds = %38
  br label %54

54:                                               ; preds = %53
  %55 = load i32, i32* %3, align 4
  %56 = add nsw i32 %55, 1
  store i32 %56, i32* %3, align 4
  br label %33

57:                                               ; preds = %33
  br label %58

58:                                               ; preds = %222, %57
  br label %59

59:                                               ; preds = %91, %58
  %60 = load i32, i32* %7, align 4
  %61 = sext i32 %60 to i64
  %62 = getelementptr inbounds [100 x [100 x i32]], [100 x [100 x i32]]* %2, i64 0, i64 %61
  %63 = load i32, i32* %8, align 4
  %64 = sext i32 %63 to i64
  %65 = getelementptr inbounds [100 x i32], [100 x i32]* %62, i64 0, i64 %64
  %66 = load i32, i32* %65, align 4
  %67 = call i32 (i8*, ...) @printf(i8* getelementptr inbounds ([4 x i8], [4 x i8]* @.str.2, i64 0, i64 0), i32 %66)
  %68 = load i32, i32* %9, align 4
  %69 = add nsw i32 %68, 1
  store i32 %69, i32* %9, align 4
  %70 = load i32, i32* %7, align 4
  %71 = sext i32 %70 to i64
  %72 = getelementptr inbounds [100 x [100 x i32]], [100 x [100 x i32]]* %2, i64 0, i64 %71
  %73 = load i32, i32* %8, align 4
  %74 = sext i32 %73 to i64
  %75 = getelementptr inbounds [100 x i32], [100 x i32]* %72, i64 0, i64 %74
  store i32 -1, i32* %75, align 4
  %76 = load i32, i32* %8, align 4
  %77 = add nsw i32 %76, 1
  store i32 %77, i32* %8, align 4
  %78 = load i32, i32* %7, align 4
  %79 = sext i32 %78 to i64
  %80 = getelementptr inbounds [100 x [100 x i32]], [100 x [100 x i32]]* %2, i64 0, i64 %79
  %81 = load i32, i32* %8, align 4
  %82 = sext i32 %81 to i64
  %83 = getelementptr inbounds [100 x i32], [100 x i32]* %80, i64 0, i64 %82
  %84 = load i32, i32* %83, align 4
  %85 = icmp eq i32 %84, -1
  br i1 %85, label %86, label %91

86:                                               ; preds = %59
  %87 = load i32, i32* %8, align 4
  %88 = add nsw i32 %87, -1
  store i32 %88, i32* %8, align 4
  %89 = load i32, i32* %7, align 4
  %90 = add nsw i32 %89, 1
  store i32 %90, i32* %7, align 4
  br label %92

91:                                               ; preds = %59
  br label %59

92:                                               ; preds = %86
  %93 = load i32, i32* %9, align 4
  %94 = load i32, i32* %5, align 4
  %95 = load i32, i32* %6, align 4
  %96 = mul nsw i32 %94, %95
  %97 = icmp sge i32 %93, %96
  br i1 %97, label %98, label %99

98:                                               ; preds = %92
  br label %223

99:                                               ; preds = %92
  br label %100

100:                                              ; preds = %132, %99
  %101 = load i32, i32* %7, align 4
  %102 = sext i32 %101 to i64
  %103 = getelementptr inbounds [100 x [100 x i32]], [100 x [100 x i32]]* %2, i64 0, i64 %102
  %104 = load i32, i32* %8, align 4
  %105 = sext i32 %104 to i64
  %106 = getelementptr inbounds [100 x i32], [100 x i32]* %103, i64 0, i64 %105
  %107 = load i32, i32* %106, align 4
  %108 = call i32 (i8*, ...) @printf(i8* getelementptr inbounds ([4 x i8], [4 x i8]* @.str.2, i64 0, i64 0), i32 %107)
  %109 = load i32, i32* %9, align 4
  %110 = add nsw i32 %109, 1
  store i32 %110, i32* %9, align 4
  %111 = load i32, i32* %7, align 4
  %112 = sext i32 %111 to i64
  %113 = getelementptr inbounds [100 x [100 x i32]], [100 x [100 x i32]]* %2, i64 0, i64 %112
  %114 = load i32, i32* %8, align 4
  %115 = sext i32 %114 to i64
  %116 = getelementptr inbounds [100 x i32], [100 x i32]* %113, i64 0, i64 %115
  store i32 -1, i32* %116, align 4
  %117 = load i32, i32* %7, align 4
  %118 = add nsw i32 %117, 1
  store i32 %118, i32* %7, align 4
  %119 = load i32, i32* %7, align 4
  %120 = sext i32 %119 to i64
  %121 = getelementptr inbounds [100 x [100 x i32]], [100 x [100 x i32]]* %2, i64 0, i64 %120
  %122 = load i32, i32* %8, align 4
  %123 = sext i32 %122 to i64
  %124 = getelementptr inbounds [100 x i32], [100 x i32]* %121, i64 0, i64 %123
  %125 = load i32, i32* %124, align 4
  %126 = icmp eq i32 %125, -1
  br i1 %126, label %127, label %132

127:                                              ; preds = %100
  %128 = load i32, i32* %7, align 4
  %129 = add nsw i32 %128, -1
  store i32 %129, i32* %7, align 4
  %130 = load i32, i32* %8, align 4
  %131 = add nsw i32 %130, -1
  store i32 %131, i32* %8, align 4
  br label %133

132:                                              ; preds = %100
  br label %100

133:                                              ; preds = %127
  %134 = load i32, i32* %9, align 4
  %135 = load i32, i32* %5, align 4
  %136 = load i32, i32* %6, align 4
  %137 = mul nsw i32 %135, %136
  %138 = icmp sge i32 %134, %137
  br i1 %138, label %139, label %140

139:                                              ; preds = %133
  br label %223

140:                                              ; preds = %133
  br label %141

141:                                              ; preds = %173, %140
  %142 = load i32, i32* %7, align 4
  %143 = sext i32 %142 to i64
  %144 = getelementptr inbounds [100 x [100 x i32]], [100 x [100 x i32]]* %2, i64 0, i64 %143
  %145 = load i32, i32* %8, align 4
  %146 = sext i32 %145 to i64
  %147 = getelementptr inbounds [100 x i32], [100 x i32]* %144, i64 0, i64 %146
  %148 = load i32, i32* %147, align 4
  %149 = call i32 (i8*, ...) @printf(i8* getelementptr inbounds ([4 x i8], [4 x i8]* @.str.2, i64 0, i64 0), i32 %148)
  %150 = load i32, i32* %9, align 4
  %151 = add nsw i32 %150, 1
  store i32 %151, i32* %9, align 4
  %152 = load i32, i32* %7, align 4
  %153 = sext i32 %152 to i64
  %154 = getelementptr inbounds [100 x [100 x i32]], [100 x [100 x i32]]* %2, i64 0, i64 %153
  %155 = load i32, i32* %8, align 4
  %156 = sext i32 %155 to i64
  %157 = getelementptr inbounds [100 x i32], [100 x i32]* %154, i64 0, i64 %156
  store i32 -1, i32* %157, align 4
  %158 = load i32, i32* %8, align 4
  %159 = add nsw i32 %158, -1
  store i32 %159, i32* %8, align 4
  %160 = load i32, i32* %7, align 4
  %161 = sext i32 %160 to i64
  %162 = getelementptr inbounds [100 x [100 x i32]], [100 x [100 x i32]]* %2, i64 0, i64 %161
  %163 = load i32, i32* %8, align 4
  %164 = sext i32 %163 to i64
  %165 = getelementptr inbounds [100 x i32], [100 x i32]* %162, i64 0, i64 %164
  %166 = load i32, i32* %165, align 4
  %167 = icmp eq i32 %166, -1
  br i1 %167, label %168, label %173

168:                                              ; preds = %141
  %169 = load i32, i32* %8, align 4
  %170 = add nsw i32 %169, 1
  store i32 %170, i32* %8, align 4
  %171 = load i32, i32* %7, align 4
  %172 = add nsw i32 %171, -1
  store i32 %172, i32* %7, align 4
  br label %174

173:                                              ; preds = %141
  br label %141

174:                                              ; preds = %168
  %175 = load i32, i32* %9, align 4
  %176 = load i32, i32* %5, align 4
  %177 = load i32, i32* %6, align 4
  %178 = mul nsw i32 %176, %177
  %179 = icmp sge i32 %175, %178
  br i1 %179, label %180, label %181

180:                                              ; preds = %174
  br label %223

181:                                              ; preds = %174
  br label %182

182:                                              ; preds = %214, %181
  %183 = load i32, i32* %7, align 4
  %184 = sext i32 %183 to i64
  %185 = getelementptr inbounds [100 x [100 x i32]], [100 x [100 x i32]]* %2, i64 0, i64 %184
  %186 = load i32, i32* %8, align 4
  %187 = sext i32 %186 to i64
  %188 = getelementptr inbounds [100 x i32], [100 x i32]* %185, i64 0, i64 %187
  %189 = load i32, i32* %188, align 4
  %190 = call i32 (i8*, ...) @printf(i8* getelementptr inbounds ([4 x i8], [4 x i8]* @.str.2, i64 0, i64 0), i32 %189)
  %191 = load i32, i32* %9, align 4
  %192 = add nsw i32 %191, 1
  store i32 %192, i32* %9, align 4
  %193 = load i32, i32* %7, align 4
  %194 = sext i32 %193 to i64
  %195 = getelementptr inbounds [100 x [100 x i32]], [100 x [100 x i32]]* %2, i64 0, i64 %194
  %196 = load i32, i32* %8, align 4
  %197 = sext i32 %196 to i64
  %198 = getelementptr inbounds [100 x i32], [100 x i32]* %195, i64 0, i64 %197
  store i32 -1, i32* %198, align 4
  %199 = load i32, i32* %7, align 4
  %200 = add nsw i32 %199, -1
  store i32 %200, i32* %7, align 4
  %201 = load i32, i32* %7, align 4
  %202 = sext i32 %201 to i64
  %203 = getelementptr inbounds [100 x [100 x i32]], [100 x [100 x i32]]* %2, i64 0, i64 %202
  %204 = load i32, i32* %8, align 4
  %205 = sext i32 %204 to i64
  %206 = getelementptr inbounds [100 x i32], [100 x i32]* %203, i64 0, i64 %205
  %207 = load i32, i32* %206, align 4
  %208 = icmp eq i32 %207, -1
  br i1 %208, label %209, label %214

209:                                              ; preds = %182
  %210 = load i32, i32* %7, align 4
  %211 = add nsw i32 %210, 1
  store i32 %211, i32* %7, align 4
  %212 = load i32, i32* %8, align 4
  %213 = add nsw i32 %212, 1
  store i32 %213, i32* %8, align 4
  br label %215

214:                                              ; preds = %182
  br label %182

215:                                              ; preds = %209
  %216 = load i32, i32* %9, align 4
  %217 = load i32, i32* %5, align 4
  %218 = load i32, i32* %6, align 4
  %219 = mul nsw i32 %217, %218
  %220 = icmp sge i32 %216, %219
  br i1 %220, label %221, label %222

221:                                              ; preds = %215
  br label %223

222:                                              ; preds = %215
  br label %58

223:                                              ; preds = %221, %180, %139, %98
  ret i32 0
}

declare dso_local i32 @__isoc99_scanf(i8*, ...) #1

declare dso_local i32 @printf(i8*, ...) #1


!llvm.module.flags = !{!0}
!llvm.ident = !{!1}

!0 = !{i32 1, !"wchar_size", i32 4}
!1 = !{!"clang version 10.0.0-4ubuntu1 "}
